target datalayout = "e-m:e-p270:32:32-p271:32:32-p272:64:64-i64:64-i128:128-f80:128-n8:16:32:64-S128"
target triple = "x86_64-pc-linux-gnu"

%class.File = type { ptr, i64, i8, i32, i8, i8, i32, i8, i8, i8, i8, i8, i64, i8, [2048 x i32], i32, ptr }

; Function Attrs: mustprogress uwtable
define noundef i32 @_ZN4File10DirectReadEPvm(ptr noundef nonnull align 8 dereferenceable(8256) %0, ptr noundef %1, i64 noundef %2) #1 align 2 {
  %4 = alloca i32, align 4
  %5 = alloca ptr, align 8
  %6 = alloca ptr, align 8
  %7 = alloca i64, align 8
  %8 = alloca i64, align 8
  store ptr %0, ptr %5, align 8
  store ptr %1, ptr %6, align 8
  store i64 %2, ptr %7, align 8
  %9 = load ptr, ptr %5, align 8
  %10 = getelementptr inbounds %class.File, ptr %9, i32 0, i32 3
  %11 = load i32, ptr %10, align 4
  %12 = icmp eq i32 %11, 1
  br i1 %12, label %13, label %15

13:                                               ; preds = %3
  %14 = getelementptr inbounds %class.File, ptr %9, i32 0, i32 1
  store i64 0, ptr %14, align 8
  br label %15

15:                                               ; preds = %13, %3
  %16 = getelementptr inbounds %class.File, ptr %9, i32 0, i32 1
  %17 = load i64, ptr %16, align 8
  %18 = trunc i64 %17 to i32
  %19 = load ptr, ptr %6, align 8
  %20 = load i64, ptr %7, align 8
  %21 = call i64 @read(i32 noundef %18, ptr noundef %19, i64 noundef %20)
  store i64 %21, ptr %8, align 8
  %22 = load i64, ptr %8, align 8
  %23 = icmp eq i64 %22, -1
  br i1 %23, label %24, label %25

24:                                               ; preds = %15
  store i32 -1, ptr %4, align 4
  br label %28

25:                                               ; preds = %15
  %26 = load i64, ptr %8, align 8
  %27 = trunc i64 %26 to i32
  store i32 %27, ptr %4, align 4
  br label %28

28:                                               ; preds = %25, %24
  %29 = load i32, ptr %4, align 4
  ret i32 %29
}