; Function Attrs: mustprogress nofree uwtable
define noundef i32 @_ZN4File10DirectReadEPvm(ptr nocapture noundef nonnull align 8 dereferenceable(8256) %0, ptr nocapture noundef %1, i64 noundef %2) local_unnamed_addr #10 align 2 {
  %4 = getelementptr inbounds i8, ptr %0, i64 20
  %5 = load i32, ptr %4, align 4
  %6 = icmp eq i32 %5, 1
  %7 = getelementptr inbounds i8, ptr %0, i64 8
  br i1 %6, label %9, label %._crit_edge

._crit_edge:                                      ; preds = %3
  %.pre = load i64, ptr %7, align 8
  %8 = trunc i64 %.pre to i32
  br label %10

9:                                                ; preds = %3
  store i64 0, ptr %7, align 8
  br label %10

10:                                               ; preds = %._crit_edge, %9
  %11 = phi i32 [ %8, %._crit_edge ], [ 0, %9 ]
  %12 = tail call i64 @read(i32 noundef %11, ptr noundef %1, i64 noundef %2)
  %13 = trunc i64 %12 to i32
  ret i32 %13
}